Certificate:
    Data:
        Version: 3 (0x2)
        Serial Number: 0 (0x0)
    Signature Algorithm: sha1WithRSAEncryption
        Issuer: C=CN, ST=SZ, L=SZ, O=Baygun Ltd., OU=Dev, CN=*.bghills.com/emailAddress=baygun@foxmail.com
        Validity
            Not Before: Nov  4 14:52:05 2014 GMT
            Not After : Nov  1 14:52:05 2024 GMT
        Subject: C=CN, ST=SZ, O=Baygun Ltd., OU=Dev, CN=*.bghills.com/emailAddress=baygun@foxmail.com
        Subject Public Key Info:
            Public Key Algorithm: rsaEncryption
                Public-Key: (1024 bit)
                Modulus:
                    00:ac:a0:77:db:94:a0:b0:2f:64:8b:0b:3a:a4:70:
                    03:a5:d4:a9:32:b4:e0:c1:ec:fe:5d:30:a7:63:5f:
                    00:9d:12:7a:2c:b5:53:dc:87:b9:d8:f9:d3:e5:c5:
                    05:d8:83:57:2b:77:81:24:d9:ae:84:87:1b:c8:73:
                    9c:0f:7a:27:ca:a7:9c:32:b9:eb:ed:97:98:b5:5e:
                    19:e4:6d:b7:50:e0:61:e1:11:32:8e:5a:ac:cc:6a:
                    10:39:a1:4d:62:ba:2c:ba:1b:a9:17:93:a5:f2:da:
                    f6:67:70:dc:b2:93:0b:90:36:e2:3e:dc:a7:d4:85:
                    e8:d6:50:95:9f:6a:19:c0:a1
                Exponent: 65537 (0x10001)
        X509v3 extensions:
            X509v3 Basic Constraints: 
                CA:FALSE
            Netscape Comment: 
                OpenSSL Generated Certificate
            X509v3 Subject Key Identifier: 
                9D:96:D1:F7:4D:74:E6:81:82:35:BB:2D:27:1D:6A:A5:58:F2:EB:07
            X509v3 Authority Key Identifier: 
                keyid:20:4E:1A:23:F9:9F:EF:0D:9D:46:BD:CE:F4:B7:82:2C:45:1E:63:A9

    Signature Algorithm: sha1WithRSAEncryption
         6c:05:c5:59:3b:35:cd:4a:3b:a0:d3:64:df:87:ff:1c:4d:2a:
         5f:ac:a5:99:7a:db:39:27:13:73:03:00:33:68:32:d7:ad:69:
         1d:7a:e2:da:51:c2:d7:17:94:5e:9a:64:6a:e6:c0:64:0b:67:
         e9:5e:76:3a:fe:04:18:4e:2b:34:b1:02:94:e6:05:6e:84:0e:
         e0:bc:a6:11:cb:f9:57:ef:79:91:a9:f6:04:66:a3:00:18:0e:
         f5:3d:40:da:ec:55:f7:fe:90:1a:ea:d4:16:65:ed:6b:83:5b:
         58:86:fa:4f:b7:cf:41:26:30:1a:37:84:29:3d:44:ef:92:87:
         87:c8:43:60:22:c1:e3:eb:ba:52:5c:d8:37:71:bb:e5:ef:9e:
         da:88:d2:48:49:fd:77:75:3a:67:37:9b:c3:7b:5d:38:6a:e0:
         b7:3f:c7:dd:19:83:87:d4:3d:b9:af:34:67:cb:00:a9:ca:0b:
         d1:2d:ce:20:82:99:13:ee:f4:3a:dc:fb:75:c1:ac:17:48:6c:
         ed:3d:99:93:5a:0c:35:ce:cd:7d:c5:be:67:9a:8f:1e:83:72:
         58:9c:92:48:71:8d:58:dd:82:77:b3:f3:86:09:2b:3b:3c:ab:
         90:30:25:63:1a:63:13:7e:18:31:87:75:69:bd:a9:ec:64:58:
         3b:a4:ac:c7
-----BEGIN CERTIFICATE-----
MIIDcjCCAlqgAwIBAgIBADANBgkqhkiG9w0BAQUFADCBhjELMAkGA1UEBhMCQ04x
CzAJBgNVBAgMAlNaMQswCQYDVQQHDAJTWjEUMBIGA1UECgwLQmF5Z3VuIEx0ZC4x
DDAKBgNVBAsMA0RldjEWMBQGA1UEAwwNKi5iZ2hpbGxzLmNvbTEhMB8GCSqGSIb3
DQEJARYSYmF5Z3VuQGZveG1haWwuY29tMB4XDTE0MTEwNDE0NTIwNVoXDTI0MTEw
MTE0NTIwNVoweTELMAkGA1UEBhMCQ04xCzAJBgNVBAgMAlNaMRQwEgYDVQQKDAtC
YXlndW4gTHRkLjEMMAoGA1UECwwDRGV2MRYwFAYDVQQDDA0qLmJnaGlsbHMuY29t
MSEwHwYJKoZIhvcNAQkBFhJiYXlndW5AZm94bWFpbC5jb20wgZ8wDQYJKoZIhvcN
AQEBBQADgY0AMIGJAoGBAKygd9uUoLAvZIsLOqRwA6XUqTK04MHs/l0wp2NfAJ0S
eiy1U9yHudj50+XFBdiDVyt3gSTZroSHG8hznA96J8qnnDK56+2XmLVeGeRtt1Dg
YeERMo5arMxqEDmhTWK6LLobqReTpfLa9mdw3LKTC5A24j7cp9SF6NZQlZ9qGcCh
AgMBAAGjezB5MAkGA1UdEwQCMAAwLAYJYIZIAYb4QgENBB8WHU9wZW5TU0wgR2Vu
ZXJhdGVkIENlcnRpZmljYXRlMB0GA1UdDgQWBBSdltH3TXTmgYI1uy0nHWqlWPLr
BzAfBgNVHSMEGDAWgBQgThoj+Z/vDZ1Gvc70t4IsRR5jqTANBgkqhkiG9w0BAQUF
AAOCAQEAbAXFWTs1zUo7oNNk34f/HE0qX6ylmXrbOScTcwMAM2gy161pHXri2lHC
1xeUXppkaubAZAtn6V52Ov4EGE4rNLEClOYFboQO4LymEcv5V+95kan2BGajABgO
9T1A2uxV9/6QGurUFmXta4NbWIb6T7fPQSYwGjeEKT1E75KHh8hDYCLB4+u6UlzY
N3G75e+e2ojSSEn9d3U6Zzebw3tdOGrgtz/H3RmDh9Q9ua80Z8sAqcoL0S3OIIKZ
E+70Otz7dcGsF0hs7T2Zk1oMNc7NfcW+Z5qPHoNyWJySSHGNWN2Cd7PzhgkrOzyr
kDAlYxpjE34YMYd1ab2p7GRYO6Ssxw==
-----END CERTIFICATE-----
